Certificate:
    Data:
        Version: 3 (0x2)
        Serial Number: 1 (0x1)
    Signature Algorithm: sha256WithRSAEncryption
        Issuer: CN=devcert
        Validity
            Not Before: Nov 20 09:57:04 2020 GMT
            Not After : Feb 23 09:57:04 2023 GMT
        Subject: CN=localhost
        Subject Public Key Info:
            Public Key Algorithm: rsaEncryption
                Public-Key: (2048 bit)
                Modulus:
                    00:9d:a7:ec:f5:a5:26:c0:0f:ed:37:77:f5:49:94:
                    bb:0b:13:6b:54:21:fb:06:67:09:51:cc:d4:c5:a1:
                    b9:3e:9c:3c:83:a3:94:f7:7b:94:90:1a:fa:d7:9b:
                    6d:8c:40:01:31:a3:02:f4:31:21:60:73:28:42:46:
                    7e:47:73:ee:88:a0:2e:01:7d:6c:f9:7b:84:32:16:
                    fa:ea:8f:e9:98:6f:73:ec:66:4b:64:76:23:9f:a0:
                    f9:ba:08:fe:40:71:00:c1:dd:c3:ad:82:de:a2:63:
                    54:c6:c3:d3:f0:64:b0:48:77:06:73:3b:20:50:4c:
                    56:27:ef:de:5b:84:c3:6b:4c:79:c6:b9:30:e5:c6:
                    06:55:70:4d:ca:a9:81:3c:a2:68:7b:84:6f:7c:e1:
                    5f:9f:fd:20:dd:12:a7:10:bf:b6:12:7a:f7:be:6a:
                    84:4c:7e:9b:44:a7:71:07:fc:17:fb:0d:cd:8f:17:
                    9a:d2:c8:04:0e:77:46:bf:5d:91:c4:db:78:a9:4d:
                    69:94:10:b8:e5:f8:2a:fc:be:9f:59:9b:6f:ea:83:
                    b1:9c:9b:9c:95:38:bb:18:ee:dd:80:fb:c3:b8:c4:
                    65:cc:f6:5a:95:e4:98:36:d8:a9:8a:62:a9:2e:17:
                    c8:5a:25:13:b8:40:8b:6c:a2:e8:4b:ac:92:d4:bb:
                    95:95
                Exponent: 65537 (0x10001)
        X509v3 extensions:
            X509v3 Basic Constraints: critical
                CA:FALSE
            X509v3 Subject Key Identifier: 
                37:48:1B:DC:1B:A8:C9:A3:9A:51:03:1D:D8:27:BA:3E:C2:9F:FE:BD
            X509v3 Authority Key Identifier: 
                keyid:46:17:C8:0E:B7:E0:19:95:91:42:E4:E7:19:6F:E2:B7:9E:44:5E:45
                DirName:/CN=devcert
                serial:C8:EA:83:EF:77:B5:4B:E3

            X509v3 Key Usage: critical
                Digital Signature, Key Encipherment
            X509v3 Extended Key Usage: 
                TLS Web Server Authentication
            X509v3 Subject Alternative Name: 
                DNS:localhost, DNS:*.localhost
    Signature Algorithm: sha256WithRSAEncryption
         a3:f5:03:73:da:d7:53:c4:4d:59:90:e4:1c:f5:e5:42:93:68:
         70:c6:13:f0:16:88:c9:89:6b:2a:2f:4e:1f:15:fe:f8:ee:2c:
         fe:ac:4d:de:f9:a0:21:66:20:bd:45:37:df:9c:a6:d3:3f:f2:
         88:e9:12:a6:bf:dc:5d:8f:85:9d:27:76:d6:c3:ce:20:6a:74:
         75:09:3b:de:ee:f0:39:bb:68:da:77:58:8e:78:4e:9e:7c:9f:
         39:5a:f2:6d:e0:9a:08:d5:2f:a1:04:89:93:35:8a:ce:9e:d1:
         4b:1c:b5:c6:cb:81:cd:4e:3d:96:24:a8:a4:13:e5:6a:b3:7a:
         38:ae:71:46:91:20:e8:74:ca:e5:17:90:20:50:14:ae:db:d1:
         f2:09:d1:fd:e2:99:e3:b1:94:a8:60:95:a3:47:b6:c3:32:30:
         6c:14:78:d2:03:34:3e:68:3e:36:08:26:6c:b8:46:be:7d:21:
         f0:92:c4:79:13:3e:b6:03:92:42:7f:7f:05:0b:7e:58:98:c2:
         2f:6d:0a:d9:db:5b:f7:c6:47:50:b6:12:2f:40:d8:62:5e:5d:
         c9:8c:55:c8:3c:65:d5:88:53:d5:02:60:03:07:4a:37:a7:a2:
         27:10:8a:1a:60:e5:c6:c5:78:24:b7:e2:e6:9b:6f:08:09:e1:
         fc:92:a0:f3
-----BEGIN CERTIFICATE-----
MIIDXjCCAkagAwIBAgIBATANBgkqhkiG9w0BAQsFADASMRAwDgYDVQQDDAdkZXZj
ZXJ0MB4XDTIwMTEyMDA5NTcwNFoXDTIzMDIyMzA5NTcwNFowFDESMBAGA1UEAwwJ
bG9jYWxob3N0MIIBIjANBgkqhkiG9w0BAQEFAAOCAQ8AMIIBCgKCAQEAnafs9aUm
wA/tN3f1SZS7CxNrVCH7BmcJUczUxaG5Ppw8g6OU93uUkBr615ttjEABMaMC9DEh
YHMoQkZ+R3PuiKAuAX1s+XuEMhb66o/pmG9z7GZLZHYjn6D5ugj+QHEAwd3DrYLe
omNUxsPT8GSwSHcGczsgUExWJ+/eW4TDa0x5xrkw5cYGVXBNyqmBPKJoe4RvfOFf
n/0g3RKnEL+2Enr3vmqETH6bRKdxB/wX+w3Njxea0sgEDndGv12RxNt4qU1plBC4
5fgq/L6fWZtv6oOxnJuclTi7GO7dgPvDuMRlzPZaleSYNtipimKpLhfIWiUTuECL
bKLoS6yS1LuVlQIDAQABo4G8MIG5MAwGA1UdEwEB/wQCMAAwHQYDVR0OBBYEFDdI
G9wbqMmjmlEDHdgnuj7Cn/69MEIGA1UdIwQ7MDmAFEYXyA634BmVkULk5xlv4ree
RF5FoRakFDASMRAwDgYDVQQDDAdkZXZjZXJ0ggkAyOqD73e1S+MwDgYDVR0PAQH/
BAQDAgWgMBMGA1UdJQQMMAoGCCsGAQUFBwMBMCEGA1UdEQQaMBiCCWxvY2FsaG9z
dIILKi5sb2NhbGhvc3QwDQYJKoZIhvcNAQELBQADggEBAKP1A3Pa11PETVmQ5Bz1
5UKTaHDGE/AWiMmJayovTh8V/vjuLP6sTd75oCFmIL1FN9+cptM/8ojpEqa/3F2P
hZ0ndtbDziBqdHUJO97u8Dm7aNp3WI54Tp58nzla8m3gmgjVL6EEiZM1is6e0Usc
tcbLgc1OPZYkqKQT5WqzejiucUaRIOh0yuUXkCBQFK7b0fIJ0f3imeOxlKhglaNH
tsMyMGwUeNIDND5oPjYIJmy4Rr59IfCSxHkTPrYDkkJ/fwULfliYwi9tCtnbW/fG
R1C2Ei9A2GJeXcmMVcg8ZdWIU9UCYAMHSjenoicQihpg5cbFeCS34uabbwgJ4fyS
oPM=
-----END CERTIFICATE-----
